; Function Attrs: mustprogress uwtable
define void @_ZN3net22QuicCryptoClientStream12DoInitializeEPNS_22QuicCryptoClientConfig11CachedStateE(ptr noundef nonnull align 8 dereferenceable(1268) %0, ptr noundef nonnull %1) local_unnamed_addr #0 align 2 {
  %3 = tail call noundef zeroext i1 @_ZNK3net22QuicCryptoClientConfig11CachedState7IsEmptyEv(ptr noundef nonnull align 8 dereferenceable(384) %1)
  br i1 %3, label %14, label %4

4:                                                ; preds = %2
  %5 = tail call noundef nonnull align 8 dereferenceable(32) ptr @_ZNK3net22QuicCryptoClientConfig11CachedState9signatureB5cxx11Ev(ptr noundef nonnull align 8 dereferenceable(384) %1)
  %6 = getelementptr inbounds nuw i8, ptr %5, i64 8
  %7 = load i64, ptr %6, align 8, !tbaa !147
  %8 = icmp eq i64 %7, 0
  br i1 %8, label %14, label %9

9:                                                ; preds = %4
  %10 = tail call i64 @_ZN4base9TimeTicks3NowEv()
  %11 = getelementptr inbounds nuw i8, ptr %0, i64 1256
  store i64 %10, ptr %11, align 8
  %12 = tail call noundef nonnull align 8 dereferenceable(32) ptr @_ZNK3net22QuicCryptoClientConfig11CachedState9chlo_hashB5cxx11Ev(ptr noundef nonnull align 8 dereferenceable(384) %1)
  %13 = getelementptr inbounds nuw i8, ptr %0, i64 1064
  tail call void @_ZNSt7__cxx1112basic_stringIcSt11char_traitsIcESaIcEE9_M_assignERKS4_(ptr noundef nonnull align 8 dereferenceable(32) %13, ptr noundef nonnull align 8 dereferenceable(32) %12)
  br label %14

14:                                               ; preds = %2, %4, %9
  %.sink = phi i32 [ 4, %9 ], [ 6, %4 ], [ 6, %2 ]
  %15 = getelementptr inbounds nuw i8, ptr %0, i64 1048
  store i32 %.sink, ptr %15, align 8, !tbaa !146
  ret void
}